(lp0
F0.34523085243020346
aF0.12823632799296963
aF0.07253430676671399
aF0.020347461637260866
aF0.020685459338876496
aF0.013114310822686406
aF0.0037179747177719193
aF0.0001351990806462516
aF0.12539714729939835
aF0.003041979314540661
aF0.002839180693571284
aF0.0050699655242344354
aF0.044007300750354895
aF0.0026363820726019063
aF0.00020279862096937742
aF0.008314743459744475
aF0.010004731967822618
aF0.002771581153248158
aF0.00020279862096937742
aF0.0010815926451700128
aF6.75995403231258e-05
aF6.75995403231258e-05
aF0.008314743459744475
aF0.0020955857500169
aF0.07550868654093153
aF0.0016223889677550193
aF0.001351990806462516
aF0.0022983843709862774
aF0.06009599134725884
aF0.0022983843709862774
aF0.012843912661393902
aF0.0005407963225850064
aF0.014804299330764551
aF0.0010815926451700128
aF0.0037179747177719193
aF0.0037179747177719193
a.