(lp0
F0.15294646873594242
aF0.4472559604138551
aF0.08653846153846154
aF0.044534412955465584
aF0.022941970310391364
aF0.011414754835807468
aF0.007984705353126407
aF0.012764282501124607
aF0.060447593342330186
aF0.024179037336932073
aF0.013888888888888888
aF0.015294646873594242
aF5.623031938821413e-05
aF0.0024741340530814214
aF0.0005060728744939271
aF0.00033738191632928474
aF0.014282501124606387
aF0.002417903733693207
aF0.01158344579397211
aF0.0005623031938821412
aF0.027103013945119207
aF0.005285650022492127
aF0.017656320287899235
aF0.00033738191632928474
aF0.0034300494826810615
aF0.0024741340530814214
aF0.00545434098065677
aF0.0020242914979757085
aF0.0002811515969410706
aF0.0021929824561403508
aF5.623031938821413e-05
aF5.623031938821413e-05
aF5.623031938821413e-05
aF0.0011246063877642825
aF5.623031938821413e-05
a.