(lp0
S'[#6;!H0:1]>>[*:1]-[#6;!R]'
p1
aS'[#6;!H0:1]>>[*:1]-[#7;!R]'
p2
aS'[#6;!H0:1]>>[*:1]-[#8;!R]'
p3
aS'[#6;!H0:1]>>[*:1]-[#9;!R]'
p4
aS'[#6:1]>>[*:1]-[#16;!R]'
p5
aS'[#6;!H0:1]>>[*:1]-[#17;!R]'
p6
aS'[#6;!H0:1]>>[*:1]-[#35;!R]'
p7
aS'[#6;!H0:1]>>[*:1]-[#53;!R]'
p8
aS'[#7;!H0:1]>>[*:1]-[#6;!R]'
p9
aS'[#7;!H0:1]>>[*:1]-[#7;!R]'
p10
aS'[#7;!H0:1]>>[*:1]-[#8;!R]'
p11
aS'[#7:1]>>[*:1]-[#16;!R]'
p12
aS'[#8;!H0:1]>>[*:1]-[#6;!R]'
p13
aS'[#8;!H0:1]>>[*:1]-[#7;!R]'
p14
aS'[#8:1]>>[*:1]-[#16;!R]'
p15
aS'[#9;!H0:1]>>[*:1]-[#6;!R]'
p16
aS'[#16:1]>>[*:1]-[#6;!R]'
p17
aS'[#16:1]>>[*:1]-[#7;!R]'
p18
aS'[#16:1]>>[*:1]-[#8;!R]'
p19
aS'[#17;!H0:1]>>[*:1]-[#6;!R]'
p20
aS'[#35;!H0:1]>>[*:1]-[#6;!R]'
p21
aS'[#53;!H0:1]>>[*:1]-[#6;!R]'
p22
aS'[#6;!H1;!H0:1]>>[*:1]=[#6;!R]'
p23
aS'[#6;!H1;!H0:1]>>[*:1]=[#7;!R]'
p24
aS'[#6;!H1;!H0:1]>>[*:1]=[#8;!R]'
p25
aS'[#6:1]>>[*:1]=[#16;!R]'
p26
aS'[#7;!H1;!H0:1]>>[*:1]=[#6;!R]'
p27
aS'[#7;!H1;!H0:1]>>[*:1]=[#8;!R]'
p28
aS'[#8;!H1;!H0:1]>>[*:1]=[#6;!R]'
p29
aS'[#8;!H1;!H0:1]>>[*:1]=[#7;!R]'
p30
aS'[#8:1]>>[*:1]=[#16;!R]'
p31
aS'[#16:1]>>[*:1]=[#6;!R]'
p32
aS'[#16:1]>>[*:1]=[#8;!R]'
p33
aS'[#6;H3:1]>>[*:1]#[#6;!R]'
p34
aS'[#6;H3:1]>>[*:1]#[#7;!R]'
p35
aS'[#7;H3:1]>>[*:1]#[#6;!R]'
p36
a.