(lp0
S'[#6;!R:1]=,-[#6;!R:2]>>[*:1]1-[#6R][*:2]1'
p1
aS'[#6X4;!R:1]-[#6;!R:2]>>[*:1]1=[#6R][*:2]1'
p2
aS'[#6;!R:1]=,-[#7;!R:2]>>[*:1]1-[#6R][*:2]1'
p3
aS'[#6X4;!R:1]-[#7;!R:2]>>[*:1]1=[#6R][*:2]1'
p4
aS'[#6;!R:1]=,-[#8;!R:2]>>[*:1]1-[#6R][*:2]1'
p5
aS'[#6X4;!R:1]-[#8;!R:2]>>[*:1]1=[#6R][*:2]1'
p6
aS'[#6;!R:1]=,-[#16;!R:2]>>[*:1]1-[#6R][*:2]1'
p7
aS'[#6X4;!R:1]-[#16;!R:2]>>[*:1]1=[#6R][*:2]1'
p8
aS'[#6;!R:1]=,-[#6;!R:2]>>[*:1]1-[#7R][*:2]1'
p9
aS'[#6X4;!R:1]-[#6;!R:2]>>[*:1]1=[#7R][*:2]1'
p10
aS'[#6;!R:1]=,-[#7;!R:2]>>[*:1]1-[#7R][*:2]1'
p11
aS'[#6X4;!R:1]-[#7;!R:2]>>[*:1]1=[#7R][*:2]1'
p12
aS'[#6;!R:1]=,-[#8;!R:2]>>[*:1]1-[#7R][*:2]1'
p13
aS'[#6X4;!R:1]-[#8;!R:2]>>[*:1]1=[#7R][*:2]1'
p14
aS'[#6;!R:1]=,-[#16;!R:2]>>[*:1]1-[#7R][*:2]1'
p15
aS'[#6X4;!R:1]-[#16;!R:2]>>[*:1]1=[#7R][*:2]1'
p16
aS'[#6;!R:1]=,-[#6;!R:2]>>[*:1]1-[#8R][*:2]1'
p17
aS'[#6;!R:1]=,-[#7;!R:2]>>[*:1]1-[#8R][*:2]1'
p18
aS'[#6;!R:1]=,-[#6;!R:2]>>[*:1]1-[#16R][*:2]1'
p19
aS'[#6;!R:1]=,-[#7;!R:2]>>[*:1]1-[#16R][*:2]1'
p20
aS'[#7X3;!R:1]-[#6;!R:2]>>[*:1]1=[#6R][*:2]1'
p21
aS'[#7;!R:1]=,-[#7;!R:2]>>[*:1]1-[#6R][*:2]1'
p22
aS'[#7X3;!R:1]-[#7;!R:2]>>[*:1]1=[#6R][*:2]1'
p23
aS'[#7;!R:1]=,-[#8;!R:2]>>[*:1]1-[#6R][*:2]1'
p24
aS'[#7X3;!R:1]-[#8;!R:2]>>[*:1]1=[#6R][*:2]1'
p25
aS'[#7;!R:1]=,-[#16;!R:2]>>[*:1]1-[#6R][*:2]1'
p26
aS'[#7X3;!R:1]-[#16;!R:2]>>[*:1]1=[#6R][*:2]1'
p27
aS'[#7X3;!R:1]-[#6;!R:2]>>[*:1]1=[#7R][*:2]1'
p28
aS'[#7;!R:1]=,-[#7;!R:2]>>[*:1]1-[#7R][*:2]1'
p29
aS'[#7X3;!R:1]-[#7;!R:2]>>[*:1]1=[#7R][*:2]1'
p30
aS'[#7X3;!R:1]-[#16;!R:2]>>[*:1]1=[#7R][*:2]1'
p31
aS'[#7;!R:1]=,-[#7;!R:2]>>[*:1]1-[#8R][*:2]1'
p32
aS'[#7;!R:1]=,-[#7;!R:2]>>[*:1]1-[#16R][*:2]1'
p33
aS'[#8;!R:1]=,-[#8;!R:2]>>[*:1]1-[#6R][*:2]1'
p34
aS'[#16;!R:1]=,-[#16;!R:2]>>[*:1]1-[#6R][*:2]1'
p35
a.