(lp0
S'[#6R;!r6;!r7;!R2:1]-[#6R;!r6;!r7:2]>>[*:1]-[#6R][*:2]'
p1
aS'[#6RX4;!r6;!r7;!R2:1]-[#6R;!r6;!r7:2]>>[*:1]=[#6R][*:2]'
p2
aS'[#6R;!r6;!r7;!R2:1]-[#7R;!r6;!r7:2]>>[*:1]-[#6R][*:2]'
p3
aS'[#6RX4;!r6;!r7;!R2:1]-[#7R;!r6;!r7:2]>>[*:1]=[#6R][*:2]'
p4
aS'[#6R;!r6;!r7;!R2:1]-[#8R;!r6;!r7:2]>>[*:1]-[#6R][*:2]'
p5
aS'[#6RX4;!r6;!r7;!R2:1]-[#8R;!r6;!r7:2]>>[*:1]=[#6R][*:2]'
p6
aS'[#6R;!r6;!r7;!R2:1]-[#16R;!r6;!r7:2]>>[*:1]-[#6R][*:2]'
p7
aS'[#6RX4;!r6;!r7;!R2:1]-[#16R;!r6;!r7:2]>>[*:1]=[#6R][*:2]'
p8
aS'[#6R;!r6;!r7;!R2:1]-[#6R;!r6;!r7:2]>>[*:1]-[#7R][*:2]'
p9
aS'[#6RX4;!r6;!r7;!R2:1]-[#6R;!r6;!r7:2]>>[*:1]=[#7R][*:2]'
p10
aS'[#6R;!r6;!r7;!R2:1]-[#7R;!r6;!r7:2]>>[*:1]-[#7R][*:2]'
p11
aS'[#6RX4;!r6;!r7;!R2:1]-[#7R;!r6;!r7:2]>>[*:1]=[#7R][*:2]'
p12
aS'[#6R;!r6;!r7;!R2:1]-[#8R;!r6;!r7:2]>>[*:1]-[#7R][*:2]'
p13
aS'[#6RX4;!r6;!r7;!R2:1]-[#8R;!r6;!r7:2]>>[*:1]=[#7R][*:2]'
p14
aS'[#6R;!r6;!r7;!R2:1]-[#16R;!r6;!r7:2]>>[*:1]-[#7R][*:2]'
p15
aS'[#6RX4;!r6;!r7;!R2:1]-[#16R;!r6;!r7:2]>>[*:1]=[#7R][*:2]'
p16
aS'[#6R;!r6;!r7;!R2:1]-[#6R;!r6;!r7:2]>>[*:1]-[#8R][*:2]'
p17
aS'[#6R;!r6;!r7;!R2:1]-[#7R;!r6;!r7:2]>>[*:1]-[#8R][*:2]'
p18
aS'[#6R;!r6;!r7;!R2:1]-[#6R;!r6;!r7:2]>>[*:1]-[#16R][*:2]'
p19
aS'[#6R;!r6;!r7;!R2:1]-[#7R;!r6;!r7:2]>>[*:1]-[#16R][*:2]'
p20
aS'[#7RX3;!r6;!r7;!R2:1]-[#6R;!r6;!r7:2]>>[*:1]=[#6R][*:2]'
p21
aS'[#7R;!r6;!r7;!R2:1]-[#7R;!r6;!r7:2]>>[*:1]-[#6R][*:2]'
p22
aS'[#7RX3;!r6;!r7;!R2:1]-[#7R;!r6;!r7:2]>>[*:1]=[#6R][*:2]'
p23
aS'[#7R;!r6;!r7;!R2:1]-[#8R;!r6;!r7:2]>>[*:1]-[#6R][*:2]'
p24
aS'[#7RX3;!r6;!r7;!R2:1]-[#8R;!r6;!r7:2]>>[*:1]=[#6R][*:2]'
p25
aS'[#7R;!r6;!r7;!R2:1]-[#16R;!r6;!r7:2]>>[*:1]-[#6R][*:2]'
p26
aS'[#7RX3;!r6;!r7;!R2:1]-[#16R;!r6;!r7:2]>>[*:1]=[#6R][*:2]'
p27
aS'[#7RX3;!r6;!r7;!R2:1]-[#6R;!r6;!r7:2]>>[*:1]=[#7R][*:2]'
p28
aS'[#7R;!r6;!r7;!R2:1]-[#7R;!r6;!r7:2]>>[*:1]-[#7R][*:2]'
p29
aS'[#7RX3;!r6;!r7;!R2:1]-[#7R;!r6;!r7:2]>>[*:1]=[#7R][*:2]'
p30
aS'[#7RX3;!r6;!r7;!R2:1]-[#16R;!r6;!r7:2]>>[*:1]=[#7R][*:2]'
p31
aS'[#7R;!r6;!r7;!R2:1]-[#7R;!r6;!r7:2]>>[*:1]-[#8R][*:2]'
p32
aS'[#7R;!r6;!r7;!R2:1]-[#7R;!r6;!r7:2]>>[*:1]-[#16R][*:2]'
p33
aS'[#8R;!r6;!r7;!R2:1]-[#8R;!r6;!r7:2]>>[*:1]-[#6R][*:2]'
p34
aS'[#16R;!r6;!r7;!R2:1]-[#16R;!r6;!r7:2]>>[*:1]-[#6R][*:2]'
p35
a.